; ModuleID = '55/872.c'
source_filename = "55/872.c"
target datalayout = "e-m:e-p270:32:32-p271:32:32-p272:64:64-i64:64-f80:128-n8:16:32:64-S128"
target triple = "x86_64-pc-linux-gnu"

@.str = private unnamed_addr constant [9 x i8] c"%d %s %d\00", align 1
@.str.1 = private unnamed_addr constant [3 x i8] c"%d\00", align 1
@.str.2 = private unnamed_addr constant [3 x i8] c"%s\00", align 1
@.str.3 = private unnamed_addr constant [2 x i8] c"\0A\00", align 1

; Function Attrs: noinline nounwind uwtable
define dso_local i32 @main() #0 {
  %1 = alloca i32, align 4
  %2 = alloca i32, align 4
  %3 = alloca i32, align 4
  %4 = alloca i32, align 4
  %5 = alloca i32, align 4
  %6 = alloca i32, align 4
  %7 = alloca i32, align 4
  %8 = alloca i32, align 4
  %9 = alloca [1000 x i8], align 16
  %10 = alloca [1000 x i8], align 16
  %11 = alloca [1000 x i32], align 16
  %12 = alloca i8*, align 8
  %13 = alloca i64, align 8
  store i32 0, i32* %1, align 4
  %14 = getelementptr inbounds [1000 x i8], [1000 x i8]* %9, i64 0, i64 0
  %15 = call i32 (i8*, ...) @__isoc99_scanf(i8* getelementptr inbounds ([9 x i8], [9 x i8]* @.str, i64 0, i64 0), i32* %2, i8* %14, i32* %3)
  %16 = getelementptr inbounds [1000 x i8], [1000 x i8]* %9, i64 0, i64 0
  %17 = call i64 @strlen(i8* %16) #4
  %18 = trunc i64 %17 to i32
  store i32 %18, i32* %7, align 4
  store i32 0, i32* %5, align 4
  %19 = load i32, i32* %7, align 4
  %20 = zext i32 %19 to i64
  %21 = call i8* @llvm.stacksave()
  store i8* %21, i8** %12, align 8
  %22 = alloca i32, i64 %20, align 16
  store i64 %20, i64* %13, align 8
  store i32 0, i32* %4, align 4
  br label %23

23:                                               ; preds = %97, %0
  %24 = load i32, i32* %4, align 4
  %25 = load i32, i32* %7, align 4
  %26 = icmp slt i32 %24, %25
  br i1 %26, label %27, label %100

27:                                               ; preds = %23
  %28 = load i32, i32* %4, align 4
  %29 = sext i32 %28 to i64
  %30 = getelementptr inbounds [1000 x i8], [1000 x i8]* %9, i64 0, i64 %29
  %31 = load i8, i8* %30, align 1
  %32 = sext i8 %31 to i32
  %33 = icmp sle i32 %32, 90
  br i1 %33, label %34, label %52

34:                                               ; preds = %27
  %35 = load i32, i32* %4, align 4
  %36 = sext i32 %35 to i64
  %37 = getelementptr inbounds [1000 x i8], [1000 x i8]* %9, i64 0, i64 %36
  %38 = load i8, i8* %37, align 1
  %39 = sext i8 %38 to i32
  %40 = icmp sge i32 %39, 65
  br i1 %40, label %41, label %52

41:                                               ; preds = %34
  %42 = load i32, i32* %4, align 4
  %43 = sext i32 %42 to i64
  %44 = getelementptr inbounds [1000 x i8], [1000 x i8]* %9, i64 0, i64 %43
  %45 = load i8, i8* %44, align 1
  %46 = sext i8 %45 to i32
  %47 = sub nsw i32 %46, 65
  %48 = add nsw i32 %47, 10
  %49 = load i32, i32* %4, align 4
  %50 = sext i32 %49 to i64
  %51 = getelementptr inbounds i32, i32* %22, i64 %50
  store i32 %48, i32* %51, align 4
  br label %88

52:                                               ; preds = %34, %27
  %53 = load i32, i32* %4, align 4
  %54 = sext i32 %53 to i64
  %55 = getelementptr inbounds [1000 x i8], [1000 x i8]* %9, i64 0, i64 %54
  %56 = load i8, i8* %55, align 1
  %57 = sext i8 %56 to i32
  %58 = icmp sle i32 %57, 122
  br i1 %58, label %59, label %77

59:                                               ; preds = %52
  %60 = load i32, i32* %4, align 4
  %61 = sext i32 %60 to i64
  %62 = getelementptr inbounds [1000 x i8], [1000 x i8]* %9, i64 0, i64 %61
  %63 = load i8, i8* %62, align 1
  %64 = sext i8 %63 to i32
  %65 = icmp sge i32 %64, 97
  br i1 %65, label %66, label %77

66:                                               ; preds = %59
  %67 = load i32, i32* %4, align 4
  %68 = sext i32 %67 to i64
  %69 = getelementptr inbounds [1000 x i8], [1000 x i8]* %9, i64 0, i64 %68
  %70 = load i8, i8* %69, align 1
  %71 = sext i8 %70 to i32
  %72 = sub nsw i32 %71, 97
  %73 = add nsw i32 %72, 10
  %74 = load i32, i32* %4, align 4
  %75 = sext i32 %74 to i64
  %76 = getelementptr inbounds i32, i32* %22, i64 %75
  store i32 %73, i32* %76, align 4
  br label %87

77:                                               ; preds = %59, %52
  %78 = load i32, i32* %4, align 4
  %79 = sext i32 %78 to i64
  %80 = getelementptr inbounds [1000 x i8], [1000 x i8]* %9, i64 0, i64 %79
  %81 = load i8, i8* %80, align 1
  %82 = sext i8 %81 to i32
  %83 = sub nsw i32 %82, 48
  %84 = load i32, i32* %4, align 4
  %85 = sext i32 %84 to i64
  %86 = getelementptr inbounds i32, i32* %22, i64 %85
  store i32 %83, i32* %86, align 4
  br label %87

87:                                               ; preds = %77, %66
  br label %88

88:                                               ; preds = %87, %41
  %89 = load i32, i32* %4, align 4
  %90 = sext i32 %89 to i64
  %91 = getelementptr inbounds i32, i32* %22, i64 %90
  %92 = load i32, i32* %91, align 4
  %93 = load i32, i32* %5, align 4
  %94 = load i32, i32* %2, align 4
  %95 = mul nsw i32 %93, %94
  %96 = add nsw i32 %92, %95
  store i32 %96, i32* %5, align 4
  br label %97

97:                                               ; preds = %88
  %98 = load i32, i32* %4, align 4
  %99 = add nsw i32 %98, 1
  store i32 %99, i32* %4, align 4
  br label %23

100:                                              ; preds = %23
  %101 = load i32, i32* %5, align 4
  %102 = icmp eq i32 %101, 0
  br i1 %102, label %103, label %105

103:                                              ; preds = %100
  %104 = call i32 (i8*, ...) @printf(i8* getelementptr inbounds ([3 x i8], [3 x i8]* @.str.1, i64 0, i64 0), i32 0)
  br label %105

105:                                              ; preds = %103, %100
  store i32 0, i32* %6, align 4
  br label %106

106:                                              ; preds = %119, %105
  %107 = load i32, i32* %5, align 4
  %108 = icmp ne i32 %107, 0
  br i1 %108, label %109, label %122

109:                                              ; preds = %106
  %110 = load i32, i32* %5, align 4
  %111 = load i32, i32* %3, align 4
  %112 = srem i32 %110, %111
  %113 = load i32, i32* %6, align 4
  %114 = sext i32 %113 to i64
  %115 = getelementptr inbounds [1000 x i32], [1000 x i32]* %11, i64 0, i64 %114
  store i32 %112, i32* %115, align 4
  %116 = load i32, i32* %5, align 4
  %117 = load i32, i32* %3, align 4
  %118 = sdiv i32 %116, %117
  store i32 %118, i32* %5, align 4
  br label %119

119:                                              ; preds = %109
  %120 = load i32, i32* %6, align 4
  %121 = add nsw i32 %120, 1
  store i32 %121, i32* %6, align 4
  br label %106

122:                                              ; preds = %106
  %123 = load i32, i32* %6, align 4
  %124 = sext i32 %123 to i64
  %125 = getelementptr inbounds [1000 x i32], [1000 x i32]* %11, i64 0, i64 %124
  store i32 0, i32* %125, align 4
  store i32 0, i32* %8, align 4
  br label %126

126:                                              ; preds = %167, %122
  %127 = load i32, i32* %8, align 4
  %128 = load i32, i32* %6, align 4
  %129 = icmp slt i32 %127, %128
  br i1 %129, label %130, label %170

130:                                              ; preds = %126
  %131 = load i32, i32* %8, align 4
  %132 = sext i32 %131 to i64
  %133 = getelementptr inbounds [1000 x i32], [1000 x i32]* %11, i64 0, i64 %132
  %134 = load i32, i32* %133, align 4
  %135 = icmp sle i32 %134, 9
  br i1 %135, label %136, label %149

136:                                              ; preds = %130
  %137 = load i32, i32* %8, align 4
  %138 = sext i32 %137 to i64
  %139 = getelementptr inbounds [1000 x i32], [1000 x i32]* %11, i64 0, i64 %138
  %140 = load i32, i32* %139, align 4
  %141 = add nsw i32 48, %140
  %142 = trunc i32 %141 to i8
  %143 = load i32, i32* %6, align 4
  %144 = sub nsw i32 %143, 1
  %145 = load i32, i32* %8, align 4
  %146 = sub nsw i32 %144, %145
  %147 = sext i32 %146 to i64
  %148 = getelementptr inbounds [1000 x i8], [1000 x i8]* %10, i64 0, i64 %147
  store i8 %142, i8* %148, align 1
  br label %163

149:                                              ; preds = %130
  %150 = load i32, i32* %8, align 4
  %151 = sext i32 %150 to i64
  %152 = getelementptr inbounds [1000 x i32], [1000 x i32]* %11, i64 0, i64 %151
  %153 = load i32, i32* %152, align 4
  %154 = sub nsw i32 %153, 10
  %155 = add nsw i32 %154, 65
  %156 = trunc i32 %155 to i8
  %157 = load i32, i32* %6, align 4
  %158 = sub nsw i32 %157, 1
  %159 = load i32, i32* %8, align 4
  %160 = sub nsw i32 %158, %159
  %161 = sext i32 %160 to i64
  %162 = getelementptr inbounds [1000 x i8], [1000 x i8]* %10, i64 0, i64 %161
  store i8 %156, i8* %162, align 1
  br label %163

163:                                              ; preds = %149, %136
  %164 = load i32, i32* %6, align 4
  %165 = sext i32 %164 to i64
  %166 = getelementptr inbounds [1000 x i8], [1000 x i8]* %10, i64 0, i64 %165
  store i8 0, i8* %166, align 1
  br label %167

167:                                              ; preds = %163
  %168 = load i32, i32* %8, align 4
  %169 = add nsw i32 %168, 1
  store i32 %169, i32* %8, align 4
  br label %126

170:                                              ; preds = %126
  %171 = getelementptr inbounds [1000 x i8], [1000 x i8]* %10, i64 0, i64 0
  %172 = call i32 (i8*, ...) @printf(i8* getelementptr inbounds ([3 x i8], [3 x i8]* @.str.2, i64 0, i64 0), i8* %171)
  %173 = call i32 (i8*, ...) @printf(i8* getelementptr inbounds ([2 x i8], [2 x i8]* @.str.3, i64 0, i64 0))
  %174 = call i32 @getchar()
  %175 = call i32 @getchar()
  %176 = load i8*, i8** %12, align 8
  call void @llvm.stackrestore(i8* %176)
  %177 = load i32, i32* %1, align 4
  ret i32 %177
}

declare dso_local i32 @__isoc99_scanf(i8*, ...) #1

; Function Attrs: nounwind readonly
declare dso_local i64 @strlen(i8*) #2

; Function Attrs: nounwind
declare i8* @llvm.stacksave() #3

declare dso_local i32 @printf(i8*, ...) #1

declare dso_local i32 @getchar() #1

; Function Attrs: nounwind
declare void @llvm.stackrestore(i8*) #3


!llvm.module.flags = !{!0}
!llvm.ident = !{!1}

!0 = !{i32 1, !"wchar_size", i32 4}
!1 = !{!"clang version 10.0.0-4ubuntu1 "}
